; Function Attrs: mustprogress nofree norecurse nosync nounwind willreturn memory(argmem: read) uwtable
define internal range(i32 0, 256) i32 @vvc_v_loop_ladf_level_8(ptr noundef readonly captures(none) %0, i64 noundef %1) #10 {
  %3 = getelementptr inbounds i8, ptr %0, i64 -1
  %4 = load i8, ptr %3, align 1, !tbaa !128
  %5 = zext i8 %4 to i32
  %6 = mul nsw i64 %1, 3
  %7 = getelementptr i8, ptr %0, i64 %6
  %8 = getelementptr i8, ptr %7, i64 -1
  %9 = load i8, ptr %8, align 1, !tbaa !128
  %10 = zext i8 %9 to i32
  %11 = add nuw nsw i32 %10, %5
  %12 = load i8, ptr %0, align 1, !tbaa !128
  %13 = zext i8 %12 to i32
  %14 = add nuw nsw i32 %11, %13
  %15 = load i8, ptr %7, align 1, !tbaa !128
  %16 = zext i8 %15 to i32
  %17 = add nuw nsw i32 %14, %16
  %18 = lshr i32 %17, 2
  ret i32 %18
}